(dp0
S'H2'
p1
(lp2
(lp3
F2.689598785575043
aF1.1593649950439717e-12
aa(lp4
F2.8230449100147696
aF9.333310640968021e-12
aa(lp5
F2.9123391392135134
aF2.8646456061105792e-11
aa(lp6
F2.973432289187039
aF6.249970741078557e-11
aa(lp7
F3.197528512350371
aF8.696647906708349e-10
aa(lp8
F3.2986678328190058
aF3.089679252546733e-09
aa(lp9
F3.547275815416525
aF2.9106082676909472e-08
aa(lp10
F3.9596449889187904
aF5.653189946945146e-07
aa(lp11
F4.457302703899647
aF1.6473705721197527e-05
aa(lp12
F4.826517333516746
aF8.644827941687509e-05
aa(lp13
F5.23536486137109
aF0.0004115006436479823
aa(lp14
F5.5142597516787575
aF0.0011739309046511221
aa(lp15
F6.612689811402603
aF0.03651835810165959
aa(lp16
F8.353625469578253
aF0.9790969283149531
aa(lp17
F10.090350448414469
aF9.586307950357764
aa(lp18
F11.463176305769126
aF42.94874005441274
aa(lp19
F14.722065648435397
aF394.7573957486204
aa(lp20
F17.78279410038921
aF1288.5217184404978
aasS'CH4'
p21
(lp22
(lp23
F23.927991734281353
aF3.8650575360708773e-13
aa(lp24
F25.48296747979344
aF6.282972192749406e-12
aa(lp25
F26.895987855750406
aF5.6531899469451224e-11
aa(lp26
F28.576803956174068
aF5.887736242140733e-10
aa(lp27
F31.908489806291048
aF2.2792825476115477e-08
aa(lp28
F33.07739122991994
aF1.0431544711253301e-07
aa(lp29
F34.62682244661353
aF6.281113567330714e-07
aa(lp30
F35.90796773938151
aF1.7487226757492634e-06
aa(lp31
F38.41432198498406
aF1.0622147304748216e-05
aa(lp32
F41.74049528703531
aF0.00010006511109639368
aa(lp33
F44.42279881431824
aF0.0005001177739765796
aa(lp34
F47.03273239551517
aF0.0019587755923531915
aa(lp35
F50.48065716667465
aF0.010213493384368201
aa(lp36
F54.73703262878211
aF0.046743881318607024
aa(lp37
F59.098625589592714
aF0.23290459876684594
aa(lp38
F67.63664746122954
aF2.1940596267242136
aa(lp39
F77.40816362741711
aF20.668967770963803
aa(lp40
F85.05258154439954
aF72.84258025108275
aa(lp41
F95.60239010953066
aF333.37711183217795
aa(lp42
F108.43169582371699
aF999.9999999999969
aasS'CO2'
p43
(lp44
(lp45
F60.33835799155094
aF7.042668719046265e-13
aa(lp46
F63.209339175076636
aF5.773881812370095e-12
aa(lp47
F66.24696192438988
aF6.890153059399962e-11
aa(lp48
F69.05548491440176
aF3.986068934707323e-10
aa(lp49
F77.40816362741711
aF3.8997468376124516e-08
aa(lp50
F84.11068898551073
aF1.183906487408814e-06
aa(lp51
F86.7711493677358
aF3.460805073334763e-06
aa(lp52
F92.22395651044226
aF3.264085061653977e-05
aa(lp53
F97.33773809039192
aF0.00019248800426682812
aa(lp54
F102.98126641944361
aF0.00085507096300613
aa(lp55
F111.31882855243232
aF0.00767179656641892
aa(lp56
F117.85904566195964
aF0.044382627937527744
aa(lp57
F123.49493891902235
aF0.14302884689255993
aa(lp58
F134.18797077655384
aF0.8274458324081002
aa(lp59
F147.32826160085907
aF6.413692946294437
aa(lp60
F165.48170999431798
aF56.53189946945099
aa(lp61
F186.007840180728
aF467.4388131860698
aa(lp62
F196.32190067904034
aF1288.5217184404978
aasS'CO'
p63
(lp64
(lp65
F20.53525026457145
aF5.419321973328284e-13
aa(lp66
F22.875732003183934
aF7.284258025108328e-11
aa(lp67
F25.028654311746067
aF2.5332014314857755e-09
aa(lp68
F25.759244613738645
aF1.0976778623237274e-08
aa(lp69
F26.851301194168617
aF6.350250262373112e-08
aa(lp70
F27.70062039366518
aF2.04645153906809e-07
aa(lp71
F29.788310243565476
aF2.8475762896684195e-06
aa(lp72
F33.046570844008656
aF5.57413355409462e-05
aa(lp73
F35.86637624484765
aF0.0006836949708649832
aa(lp74
F38.890519992803135
aF0.006151638774609196
aa(lp75
F42.176025510121434
aF0.051373522125319426
aa(lp76
F46.06638189735419
aF0.3440183472947122
aa(lp77
F48.52039969101927
aF1.005637230896144
aa(lp78
F55.53017749294906
aF12.69300238120188
aa(lp79
F61.52654101490366
aF61.516387746091965
aa(lp80
F77.40816362741711
aF840.7220340750462
aas.